target datalayout = "e-m:e-p270:32:32-p271:32:32-p272:64:64-i64:64-i128:128-f80:128-n8:16:32:64-S128"
target triple = "x86_64-pc-linux-gnu"

%"struct.duckdb_brotli::BrotliDecoderStateStruct" = type { i32, i32, %"struct.duckdb_brotli::BrotliBitReader", ptr, ptr, ptr, %union.anon, i64, i32, i32, i32, i32, i32, i32, [4 x i32], i32, i32, ptr, ptr, ptr, ptr, ptr, ptr, %"struct.duckdb_brotli::HuffmanTreeGroup", %"struct.duckdb_brotli::HuffmanTreeGroup", %"struct.duckdb_brotli::HuffmanTreeGroup", ptr, ptr, i32, i32, [3 x i64], i64, [3 x i64], [6 x i64], i64, i64, i64, ptr, ptr, i64, i64, i64, [65 x i32], i32, i32, i8, ptr, ptr, ptr, i64, i32, i32, i32, i32, i32, i32, i64, ptr, ptr, ptr, ptr, [8 x i32], %union.anon.0 }
%"struct.duckdb_brotli::BrotliBitReader" = type { i64, i64, ptr, ptr, ptr }
%union.anon = type { i64 }
%"struct.duckdb_brotli::HuffmanTreeGroup" = type { ptr, ptr, i16, i16, i16 }
%union.anon.0 = type { %"struct.duckdb_brotli::BrotliMetablockBodyArena" }
%"struct.duckdb_brotli::BrotliMetablockBodyArena" = type { [544 x i8], [544 x i64] }

; Function Attrs: alwaysinline mustprogress nounwind uwtable
define internal void @_ZN13duckdb_brotliL15BrotliDropBytesEPNS_15BrotliBitReaderEm(ptr noundef %0, i64 noundef %1) #7 {
  %3 = alloca ptr, align 8
  %4 = alloca i64, align 8
  store ptr %0, ptr %3, align 8, !tbaa !26
  store i64 %1, ptr %4, align 8, !tbaa !31
  %5 = load i64, ptr %4, align 8, !tbaa !31
  %6 = load ptr, ptr %3, align 8, !tbaa !26
  %7 = getelementptr inbounds nuw %"struct.duckdb_brotli::BrotliBitReader", ptr %6, i32 0, i32 2
  %8 = load ptr, ptr %7, align 8, !tbaa !62
  %9 = getelementptr inbounds nuw i8, ptr %8, i64 %5
  store ptr %9, ptr %7, align 8, !tbaa !62
  ret void
}

; Function Attrs: alwaysinline mustprogress nounwind uwtable
define internal void @_ZN13duckdb_brotliL24BrotliBitReaderNormalizeEPNS_15BrotliBitReaderE(ptr noundef %0) #7 {
  %2 = alloca ptr, align 8
  store ptr %0, ptr %2, align 8, !tbaa !26
  %3 = load ptr, ptr %2, align 8, !tbaa !26
  %4 = getelementptr inbounds nuw %"struct.duckdb_brotli::BrotliBitReader", ptr %3, i32 0, i32 1
  %5 = load i64, ptr %4, align 8, !tbaa !105
  %6 = icmp ult i64 %5, 64
  br i1 %6, label %7, label %17

7:                                                ; preds = %1
  %8 = load ptr, ptr %2, align 8, !tbaa !26
  %9 = getelementptr inbounds nuw %"struct.duckdb_brotli::BrotliBitReader", ptr %8, i32 0, i32 1
  %10 = load i64, ptr %9, align 8, !tbaa !105
  %11 = shl i64 1, %10
  %12 = sub i64 %11, 1
  %13 = load ptr, ptr %2, align 8, !tbaa !26
  %14 = getelementptr inbounds nuw %"struct.duckdb_brotli::BrotliBitReader", ptr %13, i32 0, i32 0
  %15 = load i64, ptr %14, align 8, !tbaa !165
  %16 = and i64 %15, %12
  store i64 %16, ptr %14, align 8, !tbaa !165
  br label %17

17:                                               ; preds = %7, %1
  ret void
}

; Function Attrs: alwaysinline mustprogress nounwind uwtable
define internal void @_ZN13duckdb_brotliL14BrotliDropBitsEPNS_15BrotliBitReaderEm(ptr noundef %0, i64 noundef %1) #7 {
  %3 = alloca ptr, align 8
  %4 = alloca i64, align 8
  store ptr %0, ptr %3, align 8, !tbaa !26
  store i64 %1, ptr %4, align 8, !tbaa !31
  %5 = load i64, ptr %4, align 8, !tbaa !31
  %6 = load ptr, ptr %3, align 8, !tbaa !26
  %7 = getelementptr inbounds nuw %"struct.duckdb_brotli::BrotliBitReader", ptr %6, i32 0, i32 1
  %8 = load i64, ptr %7, align 8, !tbaa !105
  %9 = sub i64 %8, %5
  store i64 %9, ptr %7, align 8, !tbaa !105
  %10 = load i64, ptr %4, align 8, !tbaa !31
  %11 = load ptr, ptr %3, align 8, !tbaa !26
  %12 = getelementptr inbounds nuw %"struct.duckdb_brotli::BrotliBitReader", ptr %11, i32 0, i32 0
  %13 = load i64, ptr %12, align 8, !tbaa !165
  %14 = lshr i64 %13, %10
  store i64 %14, ptr %12, align 8, !tbaa !165
  ret void
}

; Function Attrs: alwaysinline mustprogress nounwind uwtable
define internal noundef i64 @_ZN13duckdb_brotliL21BrotliGetBitsUnmaskedEPNS_15BrotliBitReaderE(ptr noundef %0) #7 {
  %2 = alloca ptr, align 8
  store ptr %0, ptr %2, align 8, !tbaa !26
  %3 = load ptr, ptr %2, align 8, !tbaa !26
  %4 = getelementptr inbounds nuw %"struct.duckdb_brotli::BrotliBitReader", ptr %3, i32 0, i32 0
  %5 = load i64, ptr %4, align 8, !tbaa !165
  ret i64 %5
}

; Function Attrs: alwaysinline mustprogress nounwind uwtable
define internal noundef i64 @_ZN13duckdb_brotliL22BrotliGetAvailableBitsEPKNS_15BrotliBitReaderE(ptr noundef %0) #7 {
  %2 = alloca ptr, align 8
  store ptr %0, ptr %2, align 8, !tbaa !26
  %3 = load ptr, ptr %2, align 8, !tbaa !26
  %4 = getelementptr inbounds nuw %"struct.duckdb_brotli::BrotliBitReader", ptr %3, i32 0, i32 1
  %5 = load i64, ptr %4, align 8, !tbaa !105
  ret i64 %5
}

; Function Attrs: alwaysinline mustprogress nounwind uwtable
define internal noundef i64 @_ZN13duckdb_brotliL25BrotliBitReaderGetAvailInEPNS_15BrotliBitReaderE(ptr noundef %0) #7 {
  %2 = alloca ptr, align 8
  store ptr %0, ptr %2, align 8, !tbaa !26
  %3 = load ptr, ptr %2, align 8, !tbaa !26
  %4 = getelementptr inbounds nuw %"struct.duckdb_brotli::BrotliBitReader", ptr %3, i32 0, i32 4
  %5 = load ptr, ptr %4, align 8, !tbaa !63
  %6 = load ptr, ptr %2, align 8, !tbaa !26
  %7 = getelementptr inbounds nuw %"struct.duckdb_brotli::BrotliBitReader", ptr %6, i32 0, i32 2
  %8 = load ptr, ptr %7, align 8, !tbaa !62
  %9 = ptrtoint ptr %5 to i64
  %10 = ptrtoint ptr %8 to i64
  %11 = sub i64 %9, %10
  ret i64 %11
}

; Function Attrs: alwaysinline mustprogress uwtable
define internal void @_ZN13duckdb_brotliL15BrotliCopyBytesEPhPNS_15BrotliBitReaderEm(ptr noundef %0, ptr noundef %1, i64 noundef %2) #9 {
  %4 = alloca ptr, align 8
  %5 = alloca ptr, align 8
  %6 = alloca i64, align 8
  store ptr %0, ptr %4, align 8, !tbaa !32
  store ptr %1, ptr %5, align 8, !tbaa !26
  store i64 %2, ptr %6, align 8, !tbaa !31
  br label %7

7:                                                ; preds = %16, %3
  %8 = load ptr, ptr %5, align 8, !tbaa !26
  %9 = call noundef i64 @_ZN13duckdb_brotliL22BrotliGetAvailableBitsEPKNS_15BrotliBitReaderE(ptr noundef %8)
  %10 = icmp uge i64 %9, 8
  br i1 %10, label %11, label %14

11:                                               ; preds = %7
  %12 = load i64, ptr %6, align 8, !tbaa !31
  %13 = icmp ugt i64 %12, 0
  br label %14

14:                                               ; preds = %11, %7
  %15 = phi i1 [ false, %7 ], [ %13, %11 ]
  br i1 %15, label %16, label %26

16:                                               ; preds = %14
  %17 = load ptr, ptr %5, align 8, !tbaa !26
  %18 = call noundef i64 @_ZN13duckdb_brotliL21BrotliGetBitsUnmaskedEPNS_15BrotliBitReaderE(ptr noundef %17)
  %19 = trunc i64 %18 to i8
  %20 = load ptr, ptr %4, align 8, !tbaa !32
  store i8 %19, ptr %20, align 1, !tbaa !65
  %21 = load ptr, ptr %5, align 8, !tbaa !26
  call void @_ZN13duckdb_brotliL14BrotliDropBitsEPNS_15BrotliBitReaderEm(ptr noundef %21, i64 noundef 8)
  %22 = load ptr, ptr %4, align 8, !tbaa !32
  %23 = getelementptr inbounds nuw i8, ptr %22, i32 1
  store ptr %23, ptr %4, align 8, !tbaa !32
  %24 = load i64, ptr %6, align 8, !tbaa !31
  %25 = add i64 %24, -1
  store i64 %25, ptr %6, align 8, !tbaa !31
  br label %7, !llvm.loop !181

26:                                               ; preds = %14
  %27 = load ptr, ptr %5, align 8, !tbaa !26
  call void @_ZN13duckdb_brotliL24BrotliBitReaderNormalizeEPNS_15BrotliBitReaderE(ptr noundef %27)
  %28 = load i64, ptr %6, align 8, !tbaa !31
  %29 = icmp ugt i64 %28, 0
  br i1 %29, label %30, label %38

30:                                               ; preds = %26
  %31 = load ptr, ptr %4, align 8, !tbaa !32
  %32 = load ptr, ptr %5, align 8, !tbaa !26
  %33 = getelementptr inbounds nuw %"struct.duckdb_brotli::BrotliBitReader", ptr %32, i32 0, i32 2
  %34 = load ptr, ptr %33, align 8, !tbaa !62
  %35 = load i64, ptr %6, align 8, !tbaa !31
  call void @llvm.memcpy.p0.p0.i64(ptr align 1 %31, ptr align 1 %34, i64 %35, i1 false)
  %36 = load ptr, ptr %5, align 8, !tbaa !26
  %37 = load i64, ptr %6, align 8, !tbaa !31
  call void @_ZN13duckdb_brotliL15BrotliDropBytesEPNS_15BrotliBitReaderEm(ptr noundef %36, i64 noundef %37)
  br label %38

38:                                               ; preds = %30, %26
  ret void
}

; Function Attrs: alwaysinline mustprogress uwtable
define internal noundef i64 @_ZN13duckdb_brotliL23BrotliGetRemainingBytesEPNS_15BrotliBitReaderE(ptr noundef %0) #9 {
  %2 = alloca i64, align 8
  %3 = alloca ptr, align 8
  %4 = alloca i64, align 8
  %5 = alloca i32, align 4
  store ptr %0, ptr %3, align 8, !tbaa !26
  call void @llvm.lifetime.start.p0(i64 8, ptr %4) #14
  %6 = load ptr, ptr %3, align 8, !tbaa !26
  %7 = call noundef i64 @_ZN13duckdb_brotliL25BrotliBitReaderGetAvailInEPNS_15BrotliBitReaderE(ptr noundef %6)
  store i64 %7, ptr %4, align 8, !tbaa !31
  %8 = load i64, ptr %4, align 8, !tbaa !31
  %9 = icmp ugt i64 %8, 1073741824
  br i1 %9, label %10, label %11

10:                                               ; preds = %1
  store i64 1073741824, ptr %2, align 8
  store i32 1, ptr %5, align 4
  br label %17

11:                                               ; preds = %1
  %12 = load i64, ptr %4, align 8, !tbaa !31
  %13 = load ptr, ptr %3, align 8, !tbaa !26
  %14 = call noundef i64 @_ZN13duckdb_brotliL22BrotliGetAvailableBitsEPKNS_15BrotliBitReaderE(ptr noundef %13)
  %15 = lshr i64 %14, 3
  %16 = add i64 %12, %15
  store i64 %16, ptr %2, align 8
  store i32 1, ptr %5, align 4
  br label %17

17:                                               ; preds = %11, %10
  call void @llvm.lifetime.end.p0(i64 8, ptr %4) #14
  %18 = load i64, ptr %2, align 8
  ret i64 %18
}

; Function Attrs: mustprogress noinline uwtable
define internal noundef i32 @_ZN13duckdb_brotliL29CopyUncompressedBlockToOutputEPmPPhS0_PNS_24BrotliDecoderStateStructE(ptr noundef %0, ptr noundef %1, ptr noundef %2, ptr noundef %3) #8 {
  %5 = alloca i32, align 4
  %6 = alloca ptr, align 8
  %7 = alloca ptr, align 8
  %8 = alloca ptr, align 8
  %9 = alloca ptr, align 8
  %10 = alloca i32, align 4
  %11 = alloca i32, align 4
  %12 = alloca i32, align 4
  store ptr %0, ptr %6, align 8, !tbaa !50
  store ptr %1, ptr %7, align 8, !tbaa !54
  store ptr %2, ptr %8, align 8, !tbaa !50
  store ptr %3, ptr %9, align 8, !tbaa !3
  %13 = load ptr, ptr %9, align 8, !tbaa !3
  %14 = call noundef i32 @_ZN13duckdb_brotliL22BrotliEnsureRingBufferEPNS_24BrotliDecoderStateStructE(ptr noundef %13)
  %15 = icmp ne i32 %14, 0
  br i1 %15, label %17, label %16

16:                                               ; preds = %4
  store i32 -26, ptr %5, align 4
  br label %133

17:                                               ; preds = %4
  br label %18

18:                                               ; preds = %132, %17
  %19 = load ptr, ptr %9, align 8, !tbaa !3
  %20 = getelementptr inbounds nuw %"struct.duckdb_brotli::BrotliDecoderStateStruct", ptr %19, i32 0, i32 51
  %21 = load i32, ptr %20, align 4, !tbaa !127
  switch i32 %21, label %132 [
    i32 0, label %22
    i32 1, label %100
  ]

22:                                               ; preds = %18
  call void @llvm.lifetime.start.p0(i64 4, ptr %10) #14
  %23 = load ptr, ptr %9, align 8, !tbaa !3
  %24 = getelementptr inbounds nuw %"struct.duckdb_brotli::BrotliDecoderStateStruct", ptr %23, i32 0, i32 2
  %25 = call noundef i64 @_ZN13duckdb_brotliL23BrotliGetRemainingBytesEPNS_15BrotliBitReaderE(ptr noundef %24)
  %26 = trunc i64 %25 to i32
  store i32 %26, ptr %10, align 4, !tbaa !10
  %27 = load i32, ptr %10, align 4, !tbaa !10
  %28 = load ptr, ptr %9, align 8, !tbaa !3
  %29 = getelementptr inbounds nuw %"struct.duckdb_brotli::BrotliDecoderStateStruct", ptr %28, i32 0, i32 16
  %30 = load i32, ptr %29, align 4, !tbaa !72
  %31 = icmp sgt i32 %27, %30
  br i1 %31, label %32, label %36

32:                                               ; preds = %22
  %33 = load ptr, ptr %9, align 8, !tbaa !3
  %34 = getelementptr inbounds nuw %"struct.duckdb_brotli::BrotliDecoderStateStruct", ptr %33, i32 0, i32 16
  %35 = load i32, ptr %34, align 4, !tbaa !72
  store i32 %35, ptr %10, align 4, !tbaa !10
  br label %36

36:                                               ; preds = %32, %22
  %37 = load ptr, ptr %9, align 8, !tbaa !3
  %38 = getelementptr inbounds nuw %"struct.duckdb_brotli::BrotliDecoderStateStruct", ptr %37, i32 0, i32 8
  %39 = load i32, ptr %38, align 8, !tbaa !98
  %40 = load i32, ptr %10, align 4, !tbaa !10
  %41 = add nsw i32 %39, %40
  %42 = load ptr, ptr %9, align 8, !tbaa !3
  %43 = getelementptr inbounds nuw %"struct.duckdb_brotli::BrotliDecoderStateStruct", ptr %42, i32 0, i32 11
  %44 = load i32, ptr %43, align 4, !tbaa !96
  %45 = icmp sgt i32 %41, %44
  br i1 %45, label %46, label %54

46:                                               ; preds = %36
  %47 = load ptr, ptr %9, align 8, !tbaa !3
  %48 = getelementptr inbounds nuw %"struct.duckdb_brotli::BrotliDecoderStateStruct", ptr %47, i32 0, i32 11
  %49 = load i32, ptr %48, align 4, !tbaa !96
  %50 = load ptr, ptr %9, align 8, !tbaa !3
  %51 = getelementptr inbounds nuw %"struct.duckdb_brotli::BrotliDecoderStateStruct", ptr %50, i32 0, i32 8
  %52 = load i32, ptr %51, align 8, !tbaa !98
  %53 = sub nsw i32 %49, %52
  store i32 %53, ptr %10, align 4, !tbaa !10
  br label %54

54:                                               ; preds = %46, %36
  %55 = load ptr, ptr %9, align 8, !tbaa !3
  %56 = getelementptr inbounds nuw %"struct.duckdb_brotli::BrotliDecoderStateStruct", ptr %55, i32 0, i32 17
  %57 = load ptr, ptr %56, align 8, !tbaa !61
  %58 = load ptr, ptr %9, align 8, !tbaa !3
  %59 = getelementptr inbounds nuw %"struct.duckdb_brotli::BrotliDecoderStateStruct", ptr %58, i32 0, i32 8
  %60 = load i32, ptr %59, align 8, !tbaa !98
  %61 = sext i32 %60 to i64
  %62 = getelementptr inbounds i8, ptr %57, i64 %61
  %63 = load ptr, ptr %9, align 8, !tbaa !3
  %64 = getelementptr inbounds nuw %"struct.duckdb_brotli::BrotliDecoderStateStruct", ptr %63, i32 0, i32 2
  %65 = load i32, ptr %10, align 4, !tbaa !10
  %66 = sext i32 %65 to i64
  call void @_ZN13duckdb_brotliL15BrotliCopyBytesEPhPNS_15BrotliBitReaderEm(ptr noundef %62, ptr noundef %64, i64 noundef %66)
  %67 = load i32, ptr %10, align 4, !tbaa !10
  %68 = load ptr, ptr %9, align 8, !tbaa !3
  %69 = getelementptr inbounds nuw %"struct.duckdb_brotli::BrotliDecoderStateStruct", ptr %68, i32 0, i32 8
  %70 = load i32, ptr %69, align 8, !tbaa !98
  %71 = add nsw i32 %70, %67
  store i32 %71, ptr %69, align 8, !tbaa !98
  %72 = load i32, ptr %10, align 4, !tbaa !10
  %73 = load ptr, ptr %9, align 8, !tbaa !3
  %74 = getelementptr inbounds nuw %"struct.duckdb_brotli::BrotliDecoderStateStruct", ptr %73, i32 0, i32 16
  %75 = load i32, ptr %74, align 4, !tbaa !72
  %76 = sub nsw i32 %75, %72
  store i32 %76, ptr %74, align 4, !tbaa !72
  %77 = load ptr, ptr %9, align 8, !tbaa !3
  %78 = getelementptr inbounds nuw %"struct.duckdb_brotli::BrotliDecoderStateStruct", ptr %77, i32 0, i32 8
  %79 = load i32, ptr %78, align 8, !tbaa !98
  %80 = load ptr, ptr %9, align 8, !tbaa !3
  %81 = getelementptr inbounds nuw %"struct.duckdb_brotli::BrotliDecoderStateStruct", ptr %80, i32 0, i32 55
  %82 = load i32, ptr %81, align 4
  %83 = lshr i32 %82, 6
  %84 = and i32 %83, 63
  %85 = shl i32 1, %84
  %86 = icmp slt i32 %79, %85
  br i1 %86, label %87, label %94

87:                                               ; preds = %54
  %88 = load ptr, ptr %9, align 8, !tbaa !3
  %89 = getelementptr inbounds nuw %"struct.duckdb_brotli::BrotliDecoderStateStruct", ptr %88, i32 0, i32 16
  %90 = load i32, ptr %89, align 4, !tbaa !72
  %91 = icmp eq i32 %90, 0
  br i1 %91, label %92, label %93

92:                                               ; preds = %87
  store i32 1, ptr %5, align 4
  store i32 1, ptr %11, align 4
  br label %97

93:                                               ; preds = %87
  store i32 2, ptr %5, align 4
  store i32 1, ptr %11, align 4
  br label %97

94:                                               ; preds = %54
  %95 = load ptr, ptr %9, align 8, !tbaa !3
  %96 = getelementptr inbounds nuw %"struct.duckdb_brotli::BrotliDecoderStateStruct", ptr %95, i32 0, i32 51
  store i32 1, ptr %96, align 4, !tbaa !127
  store i32 0, ptr %11, align 4
  br label %97

97:                                               ; preds = %94, %93, %92
  call void @llvm.lifetime.end.p0(i64 4, ptr %10) #14
  %98 = load i32, ptr %11, align 4
  switch i32 %98, label %135 [
    i32 0, label %99
    i32 1, label %133
  ]

99:                                               ; preds = %97
  br label %100

100:                                              ; preds = %18, %99
  call void @llvm.lifetime.start.p0(i64 4, ptr %12) #14
  %101 = load ptr, ptr %9, align 8, !tbaa !3
  %102 = load ptr, ptr %6, align 8, !tbaa !50
  %103 = load ptr, ptr %7, align 8, !tbaa !54
  %104 = load ptr, ptr %8, align 8, !tbaa !50
  %105 = call noundef i32 @_ZN13duckdb_brotliL15WriteRingBufferEPNS_24BrotliDecoderStateStructEPmPPhS2_i(ptr noundef %101, ptr noundef %102, ptr noundef %103, ptr noundef %104, i32 noundef 0)
  store i32 %105, ptr %12, align 4, !tbaa !56
  %106 = load i32, ptr %12, align 4, !tbaa !56
  %107 = icmp ne i32 %106, 1
  br i1 %107, label %108, label %110

108:                                              ; preds = %100
  %109 = load i32, ptr %12, align 4, !tbaa !56
  store i32 %109, ptr %5, align 4
  store i32 1, ptr %11, align 4
  br label %130

110:                                              ; preds = %100
  %111 = load ptr, ptr %9, align 8, !tbaa !3
  %112 = getelementptr inbounds nuw %"struct.duckdb_brotli::BrotliDecoderStateStruct", ptr %111, i32 0, i32 11
  %113 = load i32, ptr %112, align 4, !tbaa !96
  %114 = load ptr, ptr %9, align 8, !tbaa !3
  %115 = getelementptr inbounds nuw %"struct.duckdb_brotli::BrotliDecoderStateStruct", ptr %114, i32 0, i32 55
  %116 = load i32, ptr %115, align 4
  %117 = lshr i32 %116, 6
  %118 = and i32 %117, 63
  %119 = shl i32 1, %118
  %120 = icmp eq i32 %113, %119
  br i1 %120, label %121, label %127

121:                                              ; preds = %110
  %122 = load ptr, ptr %9, align 8, !tbaa !3
  %123 = getelementptr inbounds nuw %"struct.duckdb_brotli::BrotliDecoderStateStruct", ptr %122, i32 0, i32 9
  %124 = load i32, ptr %123, align 4, !tbaa !67
  %125 = load ptr, ptr %9, align 8, !tbaa !3
  %126 = getelementptr inbounds nuw %"struct.duckdb_brotli::BrotliDecoderStateStruct", ptr %125, i32 0, i32 10
  store i32 %124, ptr %126, align 8, !tbaa !97
  br label %127

127:                                              ; preds = %121, %110
  %128 = load ptr, ptr %9, align 8, !tbaa !3
  %129 = getelementptr inbounds nuw %"struct.duckdb_brotli::BrotliDecoderStateStruct", ptr %128, i32 0, i32 51
  store i32 0, ptr %129, align 4, !tbaa !127
  store i32 4, ptr %11, align 4
  br label %130

130:                                              ; preds = %127, %108
  call void @llvm.lifetime.end.p0(i64 4, ptr %12) #14
  %131 = load i32, ptr %11, align 4
  switch i32 %131, label %135 [
    i32 1, label %133
    i32 4, label %132
  ]

132:                                              ; preds = %18, %130
  br label %18, !llvm.loop !128

133:                                              ; preds = %130, %97, %16
  %134 = load i32, ptr %5, align 4
  ret i32 %134

135:                                              ; preds = %130, %97
  unreachable
}